target datalayout = "e-m:e-p270:32:32-p271:32:32-p272:64:64-i64:64-i128:128-f80:128-n8:16:32:64-S128"
target triple = "x86_64-pc-linux-gnu"

%struct.AVFormatContext = type { ptr, ptr, ptr, ptr, ptr, i32, i32, ptr, i32, ptr, i32, ptr, ptr, i64, i64, i64, i32, i32, i32, i64, i64, ptr, i32, i32, ptr, i32, i32, i32, i32, ptr, i64, i32, i32, %struct.AVIOInterruptCB, i32, i32, i32, i32, i64, i32, i32, i32, i32, i32, i32, i32, i32, i32, i32, i32, i32, i64, i32, i32, i32, i32, i32, ptr, ptr, ptr, ptr, i32, ptr, ptr, ptr, ptr, i32, ptr, ptr, i64, ptr, ptr, ptr, i64 }
%struct.AVIOInterruptCB = type { ptr, ptr }
%struct.AVStream = type { ptr, i32, i32, ptr, ptr, %struct.AVRational, i64, i64, i64, i32, i32, %struct.AVRational, ptr, %struct.AVRational, %struct.AVPacket, i32, %struct.AVRational, i32 }
%struct.AVPacket = type { ptr, i64, i64, ptr, i32, i32, i32, ptr, i32, i64, i64, ptr, ptr, %struct.AVRational }
%struct.AVRational = type { i32, i32 }
%struct.AVCodecParameters = type { i32, i32, i32, ptr, i32, ptr, i32, i32, i64, i32, i32, i32, i32, i32, i32, %struct.AVRational, %struct.AVRational, i32, i32, i32, i32, i32, i32, i32, %struct.AVChannelLayout, i32, i32, i32, i32, i32, i32 }
%struct.AVChannelLayout = type { i32, i32, %union.anon, ptr }
%union.anon = type { i64 }

@.str.3 = private unnamed_addr constant [24 x i8] c"24-bit Paris PCM format\00", align 1

; Function Attrs: nounwind uwtable
define internal i32 @epaf_read_header(ptr noundef %0) #0 {
  %2 = alloca i32, align 4
  %3 = alloca ptr, align 8
  %4 = alloca i32, align 4
  %5 = alloca i32, align 4
  %6 = alloca i32, align 4
  %7 = alloca i32, align 4
  %8 = alloca ptr, align 8
  %9 = alloca i32, align 4
  store ptr %0, ptr %3, align 8, !tbaa !14
  call void @llvm.lifetime.start.p0(i64 4, ptr %4) #3
  call void @llvm.lifetime.start.p0(i64 4, ptr %5) #3
  call void @llvm.lifetime.start.p0(i64 4, ptr %6) #3
  call void @llvm.lifetime.start.p0(i64 4, ptr %7) #3
  call void @llvm.lifetime.start.p0(i64 8, ptr %8) #3
  %10 = load ptr, ptr %3, align 8, !tbaa !14
  %11 = getelementptr inbounds nuw %struct.AVFormatContext, ptr %10, i32 0, i32 4
  %12 = load ptr, ptr %11, align 8, !tbaa !16
  %13 = call i64 @avio_skip(ptr noundef %12, i64 noundef 4)
  %14 = load ptr, ptr %3, align 8, !tbaa !14
  %15 = getelementptr inbounds nuw %struct.AVFormatContext, ptr %14, i32 0, i32 4
  %16 = load ptr, ptr %15, align 8, !tbaa !16
  %17 = call i32 @avio_rl32(ptr noundef %16)
  %18 = icmp ne i32 %17, 0
  br i1 %18, label %19, label %20

19:                                               ; preds = %1
  store i32 -1094995529, ptr %2, align 4
  store i32 1, ptr %9, align 4
  br label %150

20:                                               ; preds = %1
  %21 = load ptr, ptr %3, align 8, !tbaa !14
  %22 = getelementptr inbounds nuw %struct.AVFormatContext, ptr %21, i32 0, i32 4
  %23 = load ptr, ptr %22, align 8, !tbaa !16
  %24 = call i32 @avio_rl32(ptr noundef %23)
  store i32 %24, ptr %4, align 4, !tbaa !31
  %25 = load i32, ptr %4, align 4, !tbaa !31
  %26 = icmp ne i32 %25, 0
  br i1 %26, label %27, label %31

27:                                               ; preds = %20
  %28 = load i32, ptr %4, align 4, !tbaa !31
  %29 = icmp ne i32 %28, 1
  br i1 %29, label %30, label %31

30:                                               ; preds = %27
  store i32 -1094995529, ptr %2, align 4
  store i32 1, ptr %9, align 4
  br label %150

31:                                               ; preds = %27, %20
  %32 = load i32, ptr %4, align 4, !tbaa !31
  %33 = icmp ne i32 %32, 0
  br i1 %33, label %34, label %47

34:                                               ; preds = %31
  %35 = load ptr, ptr %3, align 8, !tbaa !14
  %36 = getelementptr inbounds nuw %struct.AVFormatContext, ptr %35, i32 0, i32 4
  %37 = load ptr, ptr %36, align 8, !tbaa !16
  %38 = call i32 @avio_rl32(ptr noundef %37)
  store i32 %38, ptr %5, align 4, !tbaa !31
  %39 = load ptr, ptr %3, align 8, !tbaa !14
  %40 = getelementptr inbounds nuw %struct.AVFormatContext, ptr %39, i32 0, i32 4
  %41 = load ptr, ptr %40, align 8, !tbaa !16
  %42 = call i32 @avio_rl32(ptr noundef %41)
  store i32 %42, ptr %6, align 4, !tbaa !31
  %43 = load ptr, ptr %3, align 8, !tbaa !14
  %44 = getelementptr inbounds nuw %struct.AVFormatContext, ptr %43, i32 0, i32 4
  %45 = load ptr, ptr %44, align 8, !tbaa !16
  %46 = call i32 @avio_rl32(ptr noundef %45)
  store i32 %46, ptr %7, align 4, !tbaa !31
  br label %60

47:                                               ; preds = %31
  %48 = load ptr, ptr %3, align 8, !tbaa !14
  %49 = getelementptr inbounds nuw %struct.AVFormatContext, ptr %48, i32 0, i32 4
  %50 = load ptr, ptr %49, align 8, !tbaa !16
  %51 = call i32 @avio_rb32(ptr noundef %50)
  store i32 %51, ptr %5, align 4, !tbaa !31
  %52 = load ptr, ptr %3, align 8, !tbaa !14
  %53 = getelementptr inbounds nuw %struct.AVFormatContext, ptr %52, i32 0, i32 4
  %54 = load ptr, ptr %53, align 8, !tbaa !16
  %55 = call i32 @avio_rb32(ptr noundef %54)
  store i32 %55, ptr %6, align 4, !tbaa !31
  %56 = load ptr, ptr %3, align 8, !tbaa !14
  %57 = getelementptr inbounds nuw %struct.AVFormatContext, ptr %56, i32 0, i32 4
  %58 = load ptr, ptr %57, align 8, !tbaa !16
  %59 = call i32 @avio_rb32(ptr noundef %58)
  store i32 %59, ptr %7, align 4, !tbaa !31
  br label %60

60:                                               ; preds = %47, %34
  %61 = load i32, ptr %7, align 4, !tbaa !31
  %62 = icmp sle i32 %61, 0
  br i1 %62, label %69, label %63

63:                                               ; preds = %60
  %64 = load i32, ptr %7, align 4, !tbaa !31
  %65 = icmp ugt i32 %64, 512
  br i1 %65, label %69, label %66

66:                                               ; preds = %63
  %67 = load i32, ptr %5, align 4, !tbaa !31
  %68 = icmp sle i32 %67, 0
  br i1 %68, label %69, label %70

69:                                               ; preds = %66, %63, %60
  store i32 -1094995529, ptr %2, align 4
  store i32 1, ptr %9, align 4
  br label %150

70:                                               ; preds = %66
  %71 = load ptr, ptr %3, align 8, !tbaa !14
  %72 = call ptr @avformat_new_stream(ptr noundef %71, ptr noundef null)
  store ptr %72, ptr %8, align 8, !tbaa !32
  %73 = load ptr, ptr %8, align 8, !tbaa !32
  %74 = icmp ne ptr %73, null
  br i1 %74, label %76, label %75

75:                                               ; preds = %70
  store i32 -12, ptr %2, align 4
  store i32 1, ptr %9, align 4
  br label %150

76:                                               ; preds = %70
  %77 = load ptr, ptr %8, align 8, !tbaa !32
  %78 = getelementptr inbounds nuw %struct.AVStream, ptr %77, i32 0, i32 3
  %79 = load ptr, ptr %78, align 8, !tbaa !34
  %80 = getelementptr inbounds nuw %struct.AVCodecParameters, ptr %79, i32 0, i32 0
  store i32 1, ptr %80, align 8, !tbaa !41
  %81 = load i32, ptr %7, align 4, !tbaa !31
  %82 = load ptr, ptr %8, align 8, !tbaa !32
  %83 = getelementptr inbounds nuw %struct.AVStream, ptr %82, i32 0, i32 3
  %84 = load ptr, ptr %83, align 8, !tbaa !34
  %85 = getelementptr inbounds nuw %struct.AVCodecParameters, ptr %84, i32 0, i32 24
  %86 = getelementptr inbounds nuw %struct.AVChannelLayout, ptr %85, i32 0, i32 1
  store i32 %81, ptr %86, align 4, !tbaa !44
  %87 = load i32, ptr %5, align 4, !tbaa !31
  %88 = load ptr, ptr %8, align 8, !tbaa !32
  %89 = getelementptr inbounds nuw %struct.AVStream, ptr %88, i32 0, i32 3
  %90 = load ptr, ptr %89, align 8, !tbaa !34
  %91 = getelementptr inbounds nuw %struct.AVCodecParameters, ptr %90, i32 0, i32 25
  store i32 %87, ptr %91, align 8, !tbaa !45
  %92 = load i32, ptr %6, align 4, !tbaa !31
  switch i32 %92, label %108 [
    i32 0, label %93
    i32 2, label %101
    i32 1, label %106
  ]

93:                                               ; preds = %76
  %94 = load i32, ptr %4, align 4, !tbaa !31
  %95 = icmp ne i32 %94, 0
  %96 = select i1 %95, i32 65536, i32 65537
  %97 = load ptr, ptr %8, align 8, !tbaa !32
  %98 = getelementptr inbounds nuw %struct.AVStream, ptr %97, i32 0, i32 3
  %99 = load ptr, ptr %98, align 8, !tbaa !34
  %100 = getelementptr inbounds nuw %struct.AVCodecParameters, ptr %99, i32 0, i32 1
  store i32 %96, ptr %100, align 4, !tbaa !46
  br label %109

101:                                              ; preds = %76
  %102 = load ptr, ptr %8, align 8, !tbaa !32
  %103 = getelementptr inbounds nuw %struct.AVStream, ptr %102, i32 0, i32 3
  %104 = load ptr, ptr %103, align 8, !tbaa !34
  %105 = getelementptr inbounds nuw %struct.AVCodecParameters, ptr %104, i32 0, i32 1
  store i32 65540, ptr %105, align 4, !tbaa !46
  br label %109

106:                                              ; preds = %76
  %107 = load ptr, ptr %3, align 8, !tbaa !14
  call void (ptr, ptr, ...) @avpriv_request_sample(ptr noundef %107, ptr noundef @.str.3)
  br label %108

108:                                              ; preds = %76, %106
  store i32 -1094995529, ptr %2, align 4
  store i32 1, ptr %9, align 4
  br label %150

109:                                              ; preds = %101, %93
  %110 = load ptr, ptr %8, align 8, !tbaa !32
  %111 = getelementptr inbounds nuw %struct.AVStream, ptr %110, i32 0, i32 3
  %112 = load ptr, ptr %111, align 8, !tbaa !34
  %113 = getelementptr inbounds nuw %struct.AVCodecParameters, ptr %112, i32 0, i32 1
  %114 = load i32, ptr %113, align 4, !tbaa !46
  %115 = call i32 @av_get_bits_per_sample(i32 noundef %114)
  %116 = load ptr, ptr %8, align 8, !tbaa !32
  %117 = getelementptr inbounds nuw %struct.AVStream, ptr %116, i32 0, i32 3
  %118 = load ptr, ptr %117, align 8, !tbaa !34
  %119 = getelementptr inbounds nuw %struct.AVCodecParameters, ptr %118, i32 0, i32 9
  store i32 %115, ptr %119, align 8, !tbaa !47
  %120 = load ptr, ptr %8, align 8, !tbaa !32
  %121 = getelementptr inbounds nuw %struct.AVStream, ptr %120, i32 0, i32 3
  %122 = load ptr, ptr %121, align 8, !tbaa !34
  %123 = getelementptr inbounds nuw %struct.AVCodecParameters, ptr %122, i32 0, i32 9
  %124 = load i32, ptr %123, align 8, !tbaa !47
  %125 = load ptr, ptr %8, align 8, !tbaa !32
  %126 = getelementptr inbounds nuw %struct.AVStream, ptr %125, i32 0, i32 3
  %127 = load ptr, ptr %126, align 8, !tbaa !34
  %128 = getelementptr inbounds nuw %struct.AVCodecParameters, ptr %127, i32 0, i32 24
  %129 = getelementptr inbounds nuw %struct.AVChannelLayout, ptr %128, i32 0, i32 1
  %130 = load i32, ptr %129, align 4, !tbaa !44
  %131 = mul nsw i32 %124, %130
  %132 = sdiv i32 %131, 8
  %133 = load ptr, ptr %8, align 8, !tbaa !32
  %134 = getelementptr inbounds nuw %struct.AVStream, ptr %133, i32 0, i32 3
  %135 = load ptr, ptr %134, align 8, !tbaa !34
  %136 = getelementptr inbounds nuw %struct.AVCodecParameters, ptr %135, i32 0, i32 26
  store i32 %132, ptr %136, align 4, !tbaa !48
  %137 = load ptr, ptr %8, align 8, !tbaa !32
  %138 = load ptr, ptr %8, align 8, !tbaa !32
  %139 = getelementptr inbounds nuw %struct.AVStream, ptr %138, i32 0, i32 3
  %140 = load ptr, ptr %139, align 8, !tbaa !34
  %141 = getelementptr inbounds nuw %struct.AVCodecParameters, ptr %140, i32 0, i32 25
  %142 = load i32, ptr %141, align 8, !tbaa !45
  call void @avpriv_set_pts_info(ptr noundef %137, i32 noundef 64, i32 noundef 1, i32 noundef %142)
  %143 = load ptr, ptr %3, align 8, !tbaa !14
  %144 = getelementptr inbounds nuw %struct.AVFormatContext, ptr %143, i32 0, i32 4
  %145 = load ptr, ptr %144, align 8, !tbaa !16
  %146 = call i64 @avio_skip(ptr noundef %145, i64 noundef 2024)
  %147 = icmp slt i64 %146, 0
  br i1 %147, label %148, label %149

148:                                              ; preds = %109
  store i32 -1094995529, ptr %2, align 4
  store i32 1, ptr %9, align 4
  br label %150

149:                                              ; preds = %109
  store i32 0, ptr %2, align 4
  store i32 1, ptr %9, align 4
  br label %150

150:                                              ; preds = %149, %148, %108, %75, %69, %30, %19
  call void @llvm.lifetime.end.p0(i64 8, ptr %8) #3
  call void @llvm.lifetime.end.p0(i64 4, ptr %7) #3
  call void @llvm.lifetime.end.p0(i64 4, ptr %6) #3
  call void @llvm.lifetime.end.p0(i64 4, ptr %5) #3
  call void @llvm.lifetime.end.p0(i64 4, ptr %4) #3
  %151 = load i32, ptr %2, align 4
  ret i32 %151
}