; Function Attrs: nounwind uwtable
define internal range(i32 -1094995529, 1) i32 @epaf_read_header(ptr noundef %0) #1 {
  %2 = getelementptr inbounds nuw i8, ptr %0, i64 32
  %3 = load ptr, ptr %2, align 8, !tbaa !12
  %4 = tail call i64 @avio_skip(ptr noundef %3, i64 noundef 4) #3
  %5 = load ptr, ptr %2, align 8, !tbaa !12
  %6 = tail call i32 @avio_rl32(ptr noundef %5) #3
  %.not = icmp eq i32 %6, 0
  br i1 %.not, label %7, label %52

7:                                                ; preds = %1
  %8 = load ptr, ptr %2, align 8, !tbaa !12
  %9 = tail call i32 @avio_rl32(ptr noundef %8) #3
  %.not44 = icmp eq i32 %9, 0
  %or.cond = icmp ugt i32 %9, 1
  br i1 %or.cond, label %52, label %10

10:                                               ; preds = %7
  %11 = load ptr, ptr %2, align 8, !tbaa !12
  br i1 %.not44, label %18, label %12

12:                                               ; preds = %10
  %13 = tail call i32 @avio_rl32(ptr noundef %11) #3
  %14 = load ptr, ptr %2, align 8, !tbaa !12
  %15 = tail call i32 @avio_rl32(ptr noundef %14) #3
  %16 = load ptr, ptr %2, align 8, !tbaa !12
  %17 = tail call i32 @avio_rl32(ptr noundef %16) #3
  br label %24

18:                                               ; preds = %10
  %19 = tail call i32 @avio_rb32(ptr noundef %11) #3
  %20 = load ptr, ptr %2, align 8, !tbaa !12
  %21 = tail call i32 @avio_rb32(ptr noundef %20) #3
  %22 = load ptr, ptr %2, align 8, !tbaa !12
  %23 = tail call i32 @avio_rb32(ptr noundef %22) #3
  br label %24

24:                                               ; preds = %18, %12
  %.042 = phi i32 [ %13, %12 ], [ %19, %18 ]
  %.041 = phi i32 [ %15, %12 ], [ %21, %18 ]
  %.040 = phi i32 [ %17, %12 ], [ %23, %18 ]
  %25 = add i32 %.040, -513
  %or.cond3 = icmp ult i32 %25, -512
  %26 = icmp slt i32 %.042, 1
  %or.cond5 = select i1 %or.cond3, i1 true, i1 %26
  br i1 %or.cond5, label %52, label %27

27:                                               ; preds = %24
  %28 = tail call ptr @avformat_new_stream(ptr noundef nonnull %0, ptr noundef null) #3
  %.not45 = icmp eq ptr %28, null
  br i1 %.not45, label %52, label %29

29:                                               ; preds = %27
  %30 = getelementptr inbounds nuw i8, ptr %28, i64 16
  %31 = load ptr, ptr %30, align 8, !tbaa !27
  store i32 1, ptr %31, align 8, !tbaa !34
  %32 = getelementptr inbounds nuw i8, ptr %31, i64 132
  store i32 %.040, ptr %32, align 4, !tbaa !37
  %33 = getelementptr inbounds nuw i8, ptr %31, i64 152
  store i32 %.042, ptr %33, align 8, !tbaa !38
  switch i32 %.041, label %52 [
    i32 0, label %34
    i32 2, label %37
    i32 1, label %36
  ]

34:                                               ; preds = %29
  %35 = select i1 %.not44, i32 65537, i32 65536
  br label %37

36:                                               ; preds = %29
  tail call void (ptr, ptr, ...) @avpriv_request_sample(ptr noundef nonnull %0, ptr noundef nonnull @.str.3) #3
  br label %52

37:                                               ; preds = %29, %34
  %.sink = phi i32 [ %35, %34 ], [ 65540, %29 ]
  %38 = getelementptr inbounds nuw i8, ptr %31, i64 4
  store i32 %.sink, ptr %38, align 4, !tbaa !39
  %39 = tail call i32 @av_get_bits_per_sample(i32 noundef %.sink) #3
  %40 = load ptr, ptr %30, align 8, !tbaa !27
  %41 = getelementptr inbounds nuw i8, ptr %40, i64 56
  store i32 %39, ptr %41, align 8, !tbaa !40
  %42 = getelementptr inbounds nuw i8, ptr %40, i64 132
  %43 = load i32, ptr %42, align 4, !tbaa !37
  %44 = mul nsw i32 %43, %39
  %45 = sdiv i32 %44, 8
  %46 = getelementptr inbounds nuw i8, ptr %40, i64 156
  store i32 %45, ptr %46, align 4, !tbaa !41
  %47 = getelementptr inbounds nuw i8, ptr %40, i64 152
  %48 = load i32, ptr %47, align 8, !tbaa !38
  tail call void @avpriv_set_pts_info(ptr noundef nonnull %28, i32 noundef 64, i32 noundef 1, i32 noundef %48) #3
  %49 = load ptr, ptr %2, align 8, !tbaa !12
  %50 = tail call i64 @avio_skip(ptr noundef %49, i64 noundef 2024) #3
  %51 = icmp slt i64 %50, 0
  %. = select i1 %51, i32 -1094995529, i32 0
  br label %52

52:                                               ; preds = %37, %29, %36, %27, %24, %7, %1
  %.0 = phi i32 [ -1094995529, %1 ], [ -1094995529, %7 ], [ -1094995529, %24 ], [ -12, %27 ], [ -1094995529, %36 ], [ -1094995529, %29 ], [ %., %37 ]
  ret i32 %.0
}